; Function Attrs: mustprogress nofree norecurse nosync nounwind willreturn memory(argmem: read) uwtable
define internal i32 @_array_task_hash(ptr noundef readonly captures(none) %0, i64 %1, ptr noundef readonly captures(none) %2) #7 {
  %4 = getelementptr inbounds nuw i8, ptr %0, i64 4
  %5 = load i32, ptr %4, align 4
  %6 = zext i32 %5 to i64
  %7 = shl nuw i64 %6, 32
  %8 = getelementptr inbounds nuw i8, ptr %0, i64 8
  %9 = load i32, ptr %8, align 4
  %10 = zext i32 %9 to i64
  %11 = or disjoint i64 %7, %10
  %12 = load i32, ptr %2, align 4
  %13 = sext i32 %12 to i64
  %14 = urem i64 %11, %13
  %15 = trunc i64 %14 to i32
  ret i32 %15
}